target datalayout = "e-m:e-p270:32:32-p271:32:32-p272:64:64-i64:64-i128:128-f80:128-n8:16:32:64-S128"
target triple = "x86_64-unknown-linux-gnu"

%struct.HashMap = type { ptr, i32, i32 }
%struct.Token = type { i32, ptr, i64, x86_fp80, ptr, i32, ptr, ptr, ptr, ptr, i32, i32, i8, i8, ptr, ptr }

@macros = internal global %struct.HashMap zeroinitializer, align 8
@.str.69 = private unnamed_addr constant [7 x i8] c"define\00", align 1
@.str.72 = private unnamed_addr constant [3 x i8] c"if\00", align 1
@.str.73 = private unnamed_addr constant [6 x i8] c"ifdef\00", align 1
@.str.74 = private unnamed_addr constant [7 x i8] c"ifndef\00", align 1
@.str.79 = private unnamed_addr constant [6 x i8] c"endif\00", align 1
@pragma_once = internal global %struct.HashMap zeroinitializer, align 8
@.str.91 = private unnamed_addr constant [2 x i8] c"#\00", align 1
@include_file.include_guards = internal global %struct.HashMap zeroinitializer, align 8
@.str.104 = private unnamed_addr constant [25 x i8] c"%s: cannot open file: %s\00", align 1

; Function Attrs: nounwind uwtable
define internal ptr @copy_token(ptr noundef %tok) #0 {
entry:
  %tok.addr = alloca ptr, align 8
  %t = alloca ptr, align 8
  store ptr %tok, ptr %tok.addr, align 8
  %call = call noalias ptr @calloc(i64 noundef 1, i64 noundef 128) #9
  store ptr %call, ptr %t, align 8
  %0 = load ptr, ptr %t, align 8
  %1 = load ptr, ptr %tok.addr, align 8
  call void @llvm.memcpy.p0.p0.i64(ptr align 16 %0, ptr align 16 %1, i64 128, i1 false)
  %2 = load ptr, ptr %t, align 8
  %next = getelementptr inbounds %struct.Token, ptr %2, i32 0, i32 1
  store ptr null, ptr %next, align 8
  %3 = load ptr, ptr %t, align 8
  ret ptr %3
}

; Function Attrs: nounwind uwtable
define internal zeroext i1 @is_hash(ptr noundef %tok) #0 {
entry:
  %tok.addr = alloca ptr, align 8
  store ptr %tok, ptr %tok.addr, align 8
  %0 = load ptr, ptr %tok.addr, align 8
  %at_bol = getelementptr inbounds %struct.Token, ptr %0, i32 0, i32 12
  %1 = load i8, ptr %at_bol, align 8
  %tobool = trunc i8 %1 to i1
  br i1 %tobool, label %land.rhs, label %land.end

land.rhs:                                         ; preds = %entry
  %2 = load ptr, ptr %tok.addr, align 8
  %call = call zeroext i1 @equal(ptr noundef %2, ptr noundef @.str.91)
  br label %land.end

land.end:                                         ; preds = %land.rhs, %entry
  %3 = phi i1 [ false, %entry ], [ %call, %land.rhs ]
  ret i1 %3
}

; Function Attrs: nounwind uwtable
define internal ptr @append(ptr noundef %tok1, ptr noundef %tok2) #0 {
entry:
  %retval = alloca ptr, align 8
  %tok1.addr = alloca ptr, align 8
  %tok2.addr = alloca ptr, align 8
  %head = alloca %struct.Token, align 16
  %cur = alloca ptr, align 8
  store ptr %tok1, ptr %tok1.addr, align 8
  store ptr %tok2, ptr %tok2.addr, align 8
  %0 = load ptr, ptr %tok1.addr, align 8
  %kind = getelementptr inbounds %struct.Token, ptr %0, i32 0, i32 0
  %1 = load i32, ptr %kind, align 16
  %cmp = icmp eq i32 %1, 6
  br i1 %cmp, label %if.then, label %if.end

if.then:                                          ; preds = %entry
  %2 = load ptr, ptr %tok2.addr, align 8
  store ptr %2, ptr %retval, align 8
  br label %return

if.end:                                           ; preds = %entry
  call void @llvm.memset.p0.i64(ptr align 16 %head, i8 0, i64 128, i1 false)
  store ptr %head, ptr %cur, align 8
  br label %for.cond

for.cond:                                         ; preds = %for.inc, %if.end
  %3 = load ptr, ptr %tok1.addr, align 8
  %kind1 = getelementptr inbounds %struct.Token, ptr %3, i32 0, i32 0
  %4 = load i32, ptr %kind1, align 16
  %cmp2 = icmp ne i32 %4, 6
  br i1 %cmp2, label %for.body, label %for.end

for.body:                                         ; preds = %for.cond
  %5 = load ptr, ptr %tok1.addr, align 8
  %call = call ptr @copy_token(ptr noundef %5)
  %6 = load ptr, ptr %cur, align 8
  %next = getelementptr inbounds %struct.Token, ptr %6, i32 0, i32 1
  store ptr %call, ptr %next, align 8
  store ptr %call, ptr %cur, align 8
  br label %for.inc

for.inc:                                          ; preds = %for.body
  %7 = load ptr, ptr %tok1.addr, align 8
  %next3 = getelementptr inbounds %struct.Token, ptr %7, i32 0, i32 1
  %8 = load ptr, ptr %next3, align 8
  store ptr %8, ptr %tok1.addr, align 8
  br label %for.cond, !llvm.loop !34

for.end:                                          ; preds = %for.cond
  %9 = load ptr, ptr %tok2.addr, align 8
  %10 = load ptr, ptr %cur, align 8
  %next4 = getelementptr inbounds %struct.Token, ptr %10, i32 0, i32 1
  store ptr %9, ptr %next4, align 8
  %next5 = getelementptr inbounds %struct.Token, ptr %head, i32 0, i32 1
  %11 = load ptr, ptr %next5, align 8
  store ptr %11, ptr %retval, align 8
  br label %return

return:                                           ; preds = %for.end, %if.then
  %12 = load ptr, ptr %retval, align 8
  ret ptr %12
}

; Function Attrs: nounwind uwtable
define internal ptr @detect_include_guard(ptr noundef %tok) #0 {
entry:
  %retval = alloca ptr, align 8
  %tok.addr = alloca ptr, align 8
  %macro = alloca ptr, align 8
  store ptr %tok, ptr %tok.addr, align 8
  %0 = load ptr, ptr %tok.addr, align 8
  %call = call zeroext i1 @is_hash(ptr noundef %0)
  br i1 %call, label %lor.lhs.false, label %if.then

lor.lhs.false:                                    ; preds = %entry
  %1 = load ptr, ptr %tok.addr, align 8
  %next = getelementptr inbounds %struct.Token, ptr %1, i32 0, i32 1
  %2 = load ptr, ptr %next, align 8
  %call1 = call zeroext i1 @equal(ptr noundef %2, ptr noundef @.str.74)
  br i1 %call1, label %if.end, label %if.then

if.then:                                          ; preds = %lor.lhs.false, %entry
  store ptr null, ptr %retval, align 8
  br label %return

if.end:                                           ; preds = %lor.lhs.false
  %3 = load ptr, ptr %tok.addr, align 8
  %next2 = getelementptr inbounds %struct.Token, ptr %3, i32 0, i32 1
  %4 = load ptr, ptr %next2, align 8
  %next3 = getelementptr inbounds %struct.Token, ptr %4, i32 0, i32 1
  %5 = load ptr, ptr %next3, align 8
  store ptr %5, ptr %tok.addr, align 8
  %6 = load ptr, ptr %tok.addr, align 8
  %kind = getelementptr inbounds %struct.Token, ptr %6, i32 0, i32 0
  %7 = load i32, ptr %kind, align 16
  %cmp = icmp ne i32 %7, 0
  br i1 %cmp, label %if.then4, label %if.end5

if.then4:                                         ; preds = %if.end
  store ptr null, ptr %retval, align 8
  br label %return

if.end5:                                          ; preds = %if.end
  %8 = load ptr, ptr %tok.addr, align 8
  %loc = getelementptr inbounds %struct.Token, ptr %8, i32 0, i32 4
  %9 = load ptr, ptr %loc, align 16
  %10 = load ptr, ptr %tok.addr, align 8
  %len = getelementptr inbounds %struct.Token, ptr %10, i32 0, i32 5
  %11 = load i32, ptr %len, align 8
  %conv = sext i32 %11 to i64
  %call6 = call noalias ptr @strndup(ptr noundef %9, i64 noundef %conv) #10
  store ptr %call6, ptr %macro, align 8
  %12 = load ptr, ptr %tok.addr, align 8
  %next7 = getelementptr inbounds %struct.Token, ptr %12, i32 0, i32 1
  %13 = load ptr, ptr %next7, align 8
  store ptr %13, ptr %tok.addr, align 8
  %14 = load ptr, ptr %tok.addr, align 8
  %call8 = call zeroext i1 @is_hash(ptr noundef %14)
  br i1 %call8, label %lor.lhs.false9, label %if.then16

lor.lhs.false9:                                   ; preds = %if.end5
  %15 = load ptr, ptr %tok.addr, align 8
  %next10 = getelementptr inbounds %struct.Token, ptr %15, i32 0, i32 1
  %16 = load ptr, ptr %next10, align 8
  %call11 = call zeroext i1 @equal(ptr noundef %16, ptr noundef @.str.69)
  br i1 %call11, label %lor.lhs.false12, label %if.then16

lor.lhs.false12:                                  ; preds = %lor.lhs.false9
  %17 = load ptr, ptr %tok.addr, align 8
  %next13 = getelementptr inbounds %struct.Token, ptr %17, i32 0, i32 1
  %18 = load ptr, ptr %next13, align 8
  %next14 = getelementptr inbounds %struct.Token, ptr %18, i32 0, i32 1
  %19 = load ptr, ptr %next14, align 8
  %20 = load ptr, ptr %macro, align 8
  %call15 = call zeroext i1 @equal(ptr noundef %19, ptr noundef %20)
  br i1 %call15, label %if.end17, label %if.then16

if.then16:                                        ; preds = %lor.lhs.false12, %lor.lhs.false9, %if.end5
  store ptr null, ptr %retval, align 8
  br label %return

if.end17:                                         ; preds = %lor.lhs.false12
  br label %while.cond

while.cond:                                       ; preds = %if.end47, %if.then22, %if.end17
  %21 = load ptr, ptr %tok.addr, align 8
  %kind18 = getelementptr inbounds %struct.Token, ptr %21, i32 0, i32 0
  %22 = load i32, ptr %kind18, align 16
  %cmp19 = icmp ne i32 %22, 6
  br i1 %cmp19, label %while.body, label %while.end

while.body:                                       ; preds = %while.cond
  %23 = load ptr, ptr %tok.addr, align 8
  %call21 = call zeroext i1 @is_hash(ptr noundef %23)
  br i1 %call21, label %if.end24, label %if.then22

if.then22:                                        ; preds = %while.body
  %24 = load ptr, ptr %tok.addr, align 8
  %next23 = getelementptr inbounds %struct.Token, ptr %24, i32 0, i32 1
  %25 = load ptr, ptr %next23, align 8
  store ptr %25, ptr %tok.addr, align 8
  br label %while.cond, !llvm.loop !48

if.end24:                                         ; preds = %while.body
  %26 = load ptr, ptr %tok.addr, align 8
  %next25 = getelementptr inbounds %struct.Token, ptr %26, i32 0, i32 1
  %27 = load ptr, ptr %next25, align 8
  %call26 = call zeroext i1 @equal(ptr noundef %27, ptr noundef @.str.79)
  br i1 %call26, label %land.lhs.true, label %if.end34

land.lhs.true:                                    ; preds = %if.end24
  %28 = load ptr, ptr %tok.addr, align 8
  %next28 = getelementptr inbounds %struct.Token, ptr %28, i32 0, i32 1
  %29 = load ptr, ptr %next28, align 8
  %next29 = getelementptr inbounds %struct.Token, ptr %29, i32 0, i32 1
  %30 = load ptr, ptr %next29, align 8
  %kind30 = getelementptr inbounds %struct.Token, ptr %30, i32 0, i32 0
  %31 = load i32, ptr %kind30, align 16
  %cmp31 = icmp eq i32 %31, 6
  br i1 %cmp31, label %if.then33, label %if.end34

if.then33:                                        ; preds = %land.lhs.true
  %32 = load ptr, ptr %macro, align 8
  store ptr %32, ptr %retval, align 8
  br label %return

if.end34:                                         ; preds = %land.lhs.true, %if.end24
  %33 = load ptr, ptr %tok.addr, align 8
  %call35 = call zeroext i1 @equal(ptr noundef %33, ptr noundef @.str.72)
  br i1 %call35, label %if.then43, label %lor.lhs.false37

lor.lhs.false37:                                  ; preds = %if.end34
  %34 = load ptr, ptr %tok.addr, align 8
  %call38 = call zeroext i1 @equal(ptr noundef %34, ptr noundef @.str.73)
  br i1 %call38, label %if.then43, label %lor.lhs.false40

lor.lhs.false40:                                  ; preds = %lor.lhs.false37
  %35 = load ptr, ptr %tok.addr, align 8
  %call41 = call zeroext i1 @equal(ptr noundef %35, ptr noundef @.str.74)
  br i1 %call41, label %if.then43, label %if.else

if.then43:                                        ; preds = %lor.lhs.false40, %lor.lhs.false37, %if.end34
  %36 = load ptr, ptr %tok.addr, align 8
  %next44 = getelementptr inbounds %struct.Token, ptr %36, i32 0, i32 1
  %37 = load ptr, ptr %next44, align 8
  %call45 = call ptr @skip_cond_incl(ptr noundef %37)
  store ptr %call45, ptr %tok.addr, align 8
  br label %if.end47

if.else:                                          ; preds = %lor.lhs.false40
  %38 = load ptr, ptr %tok.addr, align 8
  %next46 = getelementptr inbounds %struct.Token, ptr %38, i32 0, i32 1
  %39 = load ptr, ptr %next46, align 8
  store ptr %39, ptr %tok.addr, align 8
  br label %if.end47

if.end47:                                         ; preds = %if.else, %if.then43
  br label %while.cond, !llvm.loop !48

while.end:                                        ; preds = %while.cond
  store ptr null, ptr %retval, align 8
  br label %return

return:                                           ; preds = %while.end, %if.then33, %if.then16, %if.then4, %if.then
  %40 = load ptr, ptr %retval, align 8
  ret ptr %40
}

; Function Attrs: nounwind uwtable
define internal ptr @include_file(ptr noundef %tok, ptr noundef %path, ptr noundef %filename_tok) #0 {
entry:
  %retval = alloca ptr, align 8
  %tok.addr = alloca ptr, align 8
  %path.addr = alloca ptr, align 8
  %filename_tok.addr = alloca ptr, align 8
  %guard_name = alloca ptr, align 8
  %tok2 = alloca ptr, align 8
  store ptr %tok, ptr %tok.addr, align 8
  store ptr %path, ptr %path.addr, align 8
  store ptr %filename_tok, ptr %filename_tok.addr, align 8
  %0 = load ptr, ptr %path.addr, align 8
  %call = call ptr @hashmap_get(ptr noundef @pragma_once, ptr noundef %0)
  %tobool = icmp ne ptr %call, null
  br i1 %tobool, label %if.then, label %if.end

if.then:                                          ; preds = %entry
  %1 = load ptr, ptr %tok.addr, align 8
  store ptr %1, ptr %retval, align 8
  br label %return

if.end:                                           ; preds = %entry
  %2 = load ptr, ptr %path.addr, align 8
  %call1 = call ptr @hashmap_get(ptr noundef @include_file.include_guards, ptr noundef %2)
  store ptr %call1, ptr %guard_name, align 8
  %3 = load ptr, ptr %guard_name, align 8
  %tobool2 = icmp ne ptr %3, null
  br i1 %tobool2, label %land.lhs.true, label %if.end6

land.lhs.true:                                    ; preds = %if.end
  %4 = load ptr, ptr %guard_name, align 8
  %call3 = call ptr @hashmap_get(ptr noundef @macros, ptr noundef %4)
  %tobool4 = icmp ne ptr %call3, null
  br i1 %tobool4, label %if.then5, label %if.end6

if.then5:                                         ; preds = %land.lhs.true
  %5 = load ptr, ptr %tok.addr, align 8
  store ptr %5, ptr %retval, align 8
  br label %return

if.end6:                                          ; preds = %land.lhs.true, %if.end
  %6 = load ptr, ptr %path.addr, align 8
  %call7 = call ptr @tokenize_file(ptr noundef %6)
  store ptr %call7, ptr %tok2, align 8
  %7 = load ptr, ptr %tok2, align 8
  %tobool8 = icmp ne ptr %7, null
  br i1 %tobool8, label %if.end12, label %if.then9

if.then9:                                         ; preds = %if.end6
  %8 = load ptr, ptr %filename_tok.addr, align 8
  %9 = load ptr, ptr %path.addr, align 8
  %call10 = call ptr @__errno_location() #12
  %10 = load i32, ptr %call10, align 4
  %call11 = call ptr @strerror(i32 noundef %10) #10
  call void (ptr, ptr, ...) @error_tok(ptr noundef %8, ptr noundef @.str.104, ptr noundef %9, ptr noundef %call11) #11
  unreachable

if.end12:                                         ; preds = %if.end6
  %11 = load ptr, ptr %tok2, align 8
  %call13 = call ptr @detect_include_guard(ptr noundef %11)
  store ptr %call13, ptr %guard_name, align 8
  %12 = load ptr, ptr %guard_name, align 8
  %tobool14 = icmp ne ptr %12, null
  br i1 %tobool14, label %if.then15, label %if.end16

if.then15:                                        ; preds = %if.end12
  %13 = load ptr, ptr %path.addr, align 8
  %14 = load ptr, ptr %guard_name, align 8
  call void @hashmap_put(ptr noundef @include_file.include_guards, ptr noundef %13, ptr noundef %14)
  br label %if.end16

if.end16:                                         ; preds = %if.then15, %if.end12
  %15 = load ptr, ptr %tok2, align 8
  %16 = load ptr, ptr %tok.addr, align 8
  %call17 = call ptr @append(ptr noundef %15, ptr noundef %16)
  store ptr %call17, ptr %retval, align 8
  br label %return

return:                                           ; preds = %if.end16, %if.then5, %if.then
  %17 = load ptr, ptr %retval, align 8
  ret ptr %17
}