; Function Attrs: nounwind uwtable
define internal fastcc ptr @include_file(ptr noundef %tok, ptr noundef %path, ptr noundef %filename_tok) unnamed_addr #0 {
entry:
  %head.sroa.1.i = alloca ptr, align 8
  %call = tail call ptr @hashmap_get(ptr noundef nonnull @pragma_once, ptr noundef %path) #14
  %tobool.not = icmp eq ptr %call, null
  br i1 %tobool.not, label %if.end, label %return

if.end:                                           ; preds = %entry
  %call1 = tail call ptr @hashmap_get(ptr noundef nonnull @include_file.include_guards, ptr noundef %path) #14
  %tobool2.not = icmp eq ptr %call1, null
  br i1 %tobool2.not, label %if.end6, label %land.lhs.true

land.lhs.true:                                    ; preds = %if.end
  %call3 = tail call ptr @hashmap_get(ptr noundef nonnull @macros, ptr noundef nonnull %call1) #14
  %tobool4.not = icmp eq ptr %call3, null
  br i1 %tobool4.not, label %if.end6, label %return

if.end6:                                          ; preds = %land.lhs.true, %if.end
  %call7 = tail call ptr @tokenize_file(ptr noundef %path) #14
  %tobool8.not = icmp eq ptr %call7, null
  br i1 %tobool8.not, label %if.then9, label %if.end12

if.then9:                                         ; preds = %if.end6
  %call10 = tail call ptr @__errno_location() #18
  %0 = load i32, ptr %call10, align 4
  %call11 = tail call ptr @strerror(i32 noundef %0) #14
  tail call void (ptr, ptr, ...) @error_tok(ptr noundef %filename_tok, ptr noundef nonnull @.str.104, ptr noundef %path, ptr noundef %call11) #16
  unreachable

if.end12:                                         ; preds = %if.end6
  %at_bol.i.i = getelementptr inbounds %struct.Token, ptr %call7, i64 0, i32 12
  %1 = load i8, ptr %at_bol.i.i, align 8
  %2 = and i8 %1, 1
  %tobool.not.i.i = icmp eq i8 %2, 0
  br i1 %tobool.not.i.i, label %if.end16, label %is_hash.exit.i

is_hash.exit.i:                                   ; preds = %if.end12
  %call.i.i = tail call zeroext i1 @equal(ptr noundef nonnull %call7, ptr noundef nonnull @.str.91) #14
  br i1 %call.i.i, label %lor.lhs.false.i, label %if.end16

lor.lhs.false.i:                                  ; preds = %is_hash.exit.i
  %next.i = getelementptr inbounds %struct.Token, ptr %call7, i64 0, i32 1
  %3 = load ptr, ptr %next.i, align 8
  %call1.i = tail call zeroext i1 @equal(ptr noundef %3, ptr noundef nonnull @.str.74) #14
  br i1 %call1.i, label %if.end.i, label %if.end16

if.end.i:                                         ; preds = %lor.lhs.false.i
  %4 = load ptr, ptr %next.i, align 8
  %next3.i = getelementptr inbounds %struct.Token, ptr %4, i64 0, i32 1
  %5 = load ptr, ptr %next3.i, align 8
  %6 = load i32, ptr %5, align 16
  %cmp.not.i = icmp eq i32 %6, 0
  br i1 %cmp.not.i, label %if.end5.i, label %if.end16

if.end5.i:                                        ; preds = %if.end.i
  %loc.i = getelementptr inbounds %struct.Token, ptr %5, i64 0, i32 4
  %7 = load ptr, ptr %loc.i, align 16
  %len.i = getelementptr inbounds %struct.Token, ptr %5, i64 0, i32 5
  %8 = load i32, ptr %len.i, align 8
  %conv.i = sext i32 %8 to i64
  %call6.i = tail call noalias ptr @strndup(ptr noundef %7, i64 noundef %conv.i) #14
  %next7.i = getelementptr inbounds %struct.Token, ptr %5, i64 0, i32 1
  %9 = load ptr, ptr %next7.i, align 8
  %at_bol.i21.i = getelementptr inbounds %struct.Token, ptr %9, i64 0, i32 12
  %10 = load i8, ptr %at_bol.i21.i, align 8
  %11 = and i8 %10, 1
  %tobool.not.i22.i = icmp eq i8 %11, 0
  br i1 %tobool.not.i22.i, label %if.end16, label %is_hash.exit25.i

is_hash.exit25.i:                                 ; preds = %if.end5.i
  %call.i24.i = tail call zeroext i1 @equal(ptr noundef nonnull %9, ptr noundef nonnull @.str.91) #14
  br i1 %call.i24.i, label %lor.lhs.false9.i, label %if.end16

lor.lhs.false9.i:                                 ; preds = %is_hash.exit25.i
  %next10.i = getelementptr inbounds %struct.Token, ptr %9, i64 0, i32 1
  %12 = load ptr, ptr %next10.i, align 8
  %call11.i = tail call zeroext i1 @equal(ptr noundef %12, ptr noundef nonnull @.str.69) #14
  br i1 %call11.i, label %lor.lhs.false12.i, label %if.end16

lor.lhs.false12.i:                                ; preds = %lor.lhs.false9.i
  %13 = load ptr, ptr %next10.i, align 8
  %next14.i = getelementptr inbounds %struct.Token, ptr %13, i64 0, i32 1
  %14 = load ptr, ptr %next14.i, align 8
  %call15.i = tail call zeroext i1 @equal(ptr noundef %14, ptr noundef %call6.i) #14
  br i1 %call15.i, label %while.cond.preheader.i, label %if.end16

while.cond.preheader.i:                           ; preds = %lor.lhs.false12.i
  %15 = load i32, ptr %9, align 16
  %cmp19.not31.i = icmp eq i32 %15, 6
  br i1 %cmp19.not31.i, label %if.end16, label %while.body.i

while.body.i:                                     ; preds = %while.cond.preheader.i, %while.cond.backedge.i
  %tok.addr.032.i = phi ptr [ %tok.addr.0.be.i, %while.cond.backedge.i ], [ %9, %while.cond.preheader.i ]
  %at_bol.i26.i = getelementptr inbounds %struct.Token, ptr %tok.addr.032.i, i64 0, i32 12
  %16 = load i8, ptr %at_bol.i26.i, align 8
  %17 = and i8 %16, 1
  %tobool.not.i27.i = icmp eq i8 %17, 0
  br i1 %tobool.not.i27.i, label %if.then22.i, label %is_hash.exit30.i

is_hash.exit30.i:                                 ; preds = %while.body.i
  %call.i29.i = tail call zeroext i1 @equal(ptr noundef nonnull %tok.addr.032.i, ptr noundef nonnull @.str.91) #14
  br i1 %call.i29.i, label %if.end24.i, label %if.then22.i

if.then22.i:                                      ; preds = %is_hash.exit30.i, %while.body.i
  %next23.i = getelementptr inbounds %struct.Token, ptr %tok.addr.032.i, i64 0, i32 1
  %18 = load ptr, ptr %next23.i, align 8
  br label %while.cond.backedge.i

while.cond.backedge.i:                            ; preds = %if.else.i, %if.then43.i, %if.then22.i
  %tok.addr.0.be.i = phi ptr [ %18, %if.then22.i ], [ %call45.i, %if.then43.i ], [ %25, %if.else.i ]
  %19 = load i32, ptr %tok.addr.0.be.i, align 16
  %cmp19.not.i = icmp eq i32 %19, 6
  br i1 %cmp19.not.i, label %if.end16, label %while.body.i, !llvm.loop !45

if.end24.i:                                       ; preds = %is_hash.exit30.i
  %next25.i = getelementptr inbounds %struct.Token, ptr %tok.addr.032.i, i64 0, i32 1
  %20 = load ptr, ptr %next25.i, align 8
  %call26.i = tail call zeroext i1 @equal(ptr noundef %20, ptr noundef nonnull @.str.79) #14
  br i1 %call26.i, label %land.lhs.true.i, label %if.end34.i

land.lhs.true.i:                                  ; preds = %if.end24.i
  %21 = load ptr, ptr %next25.i, align 8
  %next29.i = getelementptr inbounds %struct.Token, ptr %21, i64 0, i32 1
  %22 = load ptr, ptr %next29.i, align 8
  %23 = load i32, ptr %22, align 16
  %cmp31.i = icmp eq i32 %23, 6
  br i1 %cmp31.i, label %detect_include_guard.exit, label %if.end34.i

if.end34.i:                                       ; preds = %land.lhs.true.i, %if.end24.i
  %call35.i = tail call zeroext i1 @equal(ptr noundef nonnull %tok.addr.032.i, ptr noundef nonnull @.str.72) #14
  br i1 %call35.i, label %if.then43.i, label %lor.lhs.false37.i

lor.lhs.false37.i:                                ; preds = %if.end34.i
  %call38.i = tail call zeroext i1 @equal(ptr noundef nonnull %tok.addr.032.i, ptr noundef nonnull @.str.73) #14
  br i1 %call38.i, label %if.then43.i, label %lor.lhs.false40.i

lor.lhs.false40.i:                                ; preds = %lor.lhs.false37.i
  %call41.i = tail call zeroext i1 @equal(ptr noundef nonnull %tok.addr.032.i, ptr noundef nonnull @.str.74) #14
  br i1 %call41.i, label %if.then43.i, label %if.else.i

if.then43.i:                                      ; preds = %lor.lhs.false40.i, %lor.lhs.false37.i, %if.end34.i
  %24 = load ptr, ptr %next25.i, align 8
  %call45.i = tail call fastcc ptr @skip_cond_incl(ptr noundef %24)
  br label %while.cond.backedge.i

if.else.i:                                        ; preds = %lor.lhs.false40.i
  %25 = load ptr, ptr %next25.i, align 8
  br label %while.cond.backedge.i

detect_include_guard.exit:                        ; preds = %land.lhs.true.i
  %tobool14.not = icmp eq ptr %call6.i, null
  br i1 %tobool14.not, label %if.end16, label %if.then15

if.then15:                                        ; preds = %detect_include_guard.exit
  tail call void @hashmap_put(ptr noundef nonnull @include_file.include_guards, ptr noundef %path, ptr noundef nonnull %call6.i) #14
  br label %if.end16

if.end16:                                         ; preds = %while.cond.backedge.i, %while.cond.preheader.i, %if.end5.i, %if.end12, %is_hash.exit25.i, %lor.lhs.false9.i, %lor.lhs.false12.i, %if.end.i, %is_hash.exit.i, %lor.lhs.false.i, %if.then15, %detect_include_guard.exit
  call void @llvm.lifetime.start.p0(i64 8, ptr nonnull %head.sroa.1.i)
  %26 = load i32, ptr %call7, align 16
  %cmp.i = icmp eq i32 %26, 6
  br i1 %cmp.i, label %append.exit, label %if.end.i12

if.end.i12:                                       ; preds = %if.end16
  store ptr null, ptr %head.sroa.1.i, align 8
  br label %for.body.i

for.body.i:                                       ; preds = %for.body.i, %if.end.i12
  %tok1.addr.06.i = phi ptr [ %call7, %if.end.i12 ], [ %27, %for.body.i ]
  %cur.07.sroa.phi.i = phi ptr [ %head.sroa.1.i, %if.end.i12 ], [ %call.i.sroa.gep.i, %for.body.i ]
  %call.i.i13 = tail call noalias noundef dereferenceable_or_null(128) ptr @calloc(i64 noundef 1, i64 noundef 128) #15
  %call.i.sroa.gep.i = getelementptr inbounds %struct.Token, ptr %call.i.i13, i64 0, i32 1
  tail call void @llvm.memcpy.p0.p0.i64(ptr noundef nonnull align 16 dereferenceable(128) %call.i.i13, ptr noundef nonnull align 16 dereferenceable(128) %tok1.addr.06.i, i64 128, i1 false)
  store ptr null, ptr %call.i.sroa.gep.i, align 8
  store ptr %call.i.i13, ptr %cur.07.sroa.phi.i, align 8
  %next3.i14 = getelementptr inbounds %struct.Token, ptr %tok1.addr.06.i, i64 0, i32 1
  %27 = load ptr, ptr %next3.i14, align 8
  %.pr.i = load i32, ptr %27, align 16
  %cmp2.not.i = icmp eq i32 %.pr.i, 6
  br i1 %cmp2.not.i, label %for.end.i, label %for.body.i, !llvm.loop !26

for.end.i:                                        ; preds = %for.body.i
  store ptr %tok, ptr %call.i.sroa.gep.i, align 8
  %head.sroa.1.i.0.head.sroa.1.i.0.head.sroa.1.i.0.head.sroa.1.0.head.sroa.1.8..i = load ptr, ptr %head.sroa.1.i, align 8
  br label %append.exit

append.exit:                                      ; preds = %if.end16, %for.end.i
  %retval.0.i15 = phi ptr [ %head.sroa.1.i.0.head.sroa.1.i.0.head.sroa.1.i.0.head.sroa.1.0.head.sroa.1.8..i, %for.end.i ], [ %tok, %if.end16 ]
  call void @llvm.lifetime.end.p0(i64 8, ptr nonnull %head.sroa.1.i)
  br label %return

return:                                           ; preds = %land.lhs.true, %entry, %append.exit
  %retval.0 = phi ptr [ %retval.0.i15, %append.exit ], [ %tok, %entry ], [ %tok, %land.lhs.true ]
  ret ptr %retval.0
}